; Function Attrs: mustprogress uwtable
define hidden noundef zeroext i1 @_Z18for_each_parameterR10ptr_vectorI3astER8ast_markjPK9parameter(ptr noundef nonnull align 8 dereferenceable(8) %stack, ptr noundef nonnull align 8 dereferenceable(56) %visited, i32 noundef %num_args, ptr nocapture noundef readonly %params) local_unnamed_addr #3 {
entry:
  %cmp13.not = icmp eq i32 %num_args, 0
  br i1 %cmp13.not, label %for.end, label %for.body.preheader

for.body.preheader:                               ; preds = %entry
  %wide.trip.count = zext i32 %num_args to i64
  br label %for.body

for.body:                                         ; preds = %for.body.preheader, %for.inc
  %indvars.iv = phi i64 [ 0, %for.body.preheader ], [ %indvars.iv.next, %for.inc ]
  %result.015 = phi i8 [ 1, %for.body.preheader ], [ %result.1, %for.inc ]
  %arrayidx = getelementptr inbounds %class.parameter, ptr %params, i64 %indvars.iv
  %_M_index.i.i.i = getelementptr inbounds i8, ptr %arrayidx, i64 8
  %0 = load i8, ptr %_M_index.i.i.i, align 8
  %cmp.i = icmp eq i8 %0, 1
  br i1 %cmp.i, label %_ZNK9parameter7get_astEv.exit, label %for.inc

_ZNK9parameter7get_astEv.exit:                    ; preds = %for.body
  %1 = load ptr, ptr %arrayidx, align 8
  %call2 = tail call noundef zeroext i1 @_ZNK8ast_mark9is_markedEP3ast(ptr noundef nonnull align 8 dereferenceable(56) %visited, ptr noundef %1)
  br i1 %call2, label %for.inc, label %if.then

if.then:                                          ; preds = %_ZNK9parameter7get_astEv.exit
  %2 = load i8, ptr %_M_index.i.i.i, align 8
  %cmp.not.i.i.i6 = icmp eq i8 %2, 1
  br i1 %cmp.not.i.i.i6, label %_ZNK9parameter7get_astEv.exit10, label %if.then.i.i.i7

if.then.i.i.i7:                                   ; preds = %if.then
  %exception.i.i.i.i.i8 = tail call ptr @__cxa_allocate_exception(i64 16) #12
  store ptr getelementptr inbounds ({ [5 x ptr] }, ptr @_ZTVSt18bad_variant_access, i64 0, i32 0, i64 2), ptr %exception.i.i.i.i.i8, align 8
  %_M_reason.i.i.i.i.i.i9 = getelementptr inbounds i8, ptr %exception.i.i.i.i.i8, i64 8
  store ptr @.str.1, ptr %_M_reason.i.i.i.i.i.i9, align 8
  tail call void @__cxa_throw(ptr nonnull %exception.i.i.i.i.i8, ptr nonnull @_ZTISt18bad_variant_access, ptr nonnull @_ZNSt18bad_variant_accessD2Ev) #13
  unreachable

_ZNK9parameter7get_astEv.exit10:                  ; preds = %if.then
  %3 = load ptr, ptr %arrayidx, align 8
  %4 = load ptr, ptr %stack, align 8
  %cmp.i11 = icmp eq ptr %4, null
  br i1 %cmp.i11, label %if.then.i, label %lor.lhs.false.i

lor.lhs.false.i:                                  ; preds = %_ZNK9parameter7get_astEv.exit10
  %arrayidx.i = getelementptr inbounds i8, ptr %4, i64 -4
  %5 = load i32, ptr %arrayidx.i, align 4
  %arrayidx4.i = getelementptr inbounds i8, ptr %4, i64 -8
  %6 = load i32, ptr %arrayidx4.i, align 4
  %cmp5.i = icmp eq i32 %5, %6
  br i1 %cmp5.i, label %if.then.i, label %_ZN6vectorIP3astLb0EjE9push_backEOS1_.exit

if.then.i:                                        ; preds = %lor.lhs.false.i, %_ZNK9parameter7get_astEv.exit10
  tail call void @_ZN6vectorIP3astLb0EjE13expand_vectorEv(ptr noundef nonnull align 8 dereferenceable(8) %stack)
  %.pre.i = load ptr, ptr %stack, align 8
  %arrayidx8.phi.trans.insert.i = getelementptr inbounds i8, ptr %.pre.i, i64 -4
  %.pre1.i = load i32, ptr %arrayidx8.phi.trans.insert.i, align 4
  br label %_ZN6vectorIP3astLb0EjE9push_backEOS1_.exit

_ZN6vectorIP3astLb0EjE9push_backEOS1_.exit:       ; preds = %lor.lhs.false.i, %if.then.i
  %7 = phi i32 [ %.pre1.i, %if.then.i ], [ %5, %lor.lhs.false.i ]
  %8 = phi ptr [ %.pre.i, %if.then.i ], [ %4, %lor.lhs.false.i ]
  %idx.ext.i = zext i32 %7 to i64
  %add.ptr.i = getelementptr inbounds ptr, ptr %8, i64 %idx.ext.i
  store ptr %3, ptr %add.ptr.i, align 8
  %9 = load ptr, ptr %stack, align 8
  %arrayidx10.i = getelementptr inbounds i8, ptr %9, i64 -4
  %10 = load i32, ptr %arrayidx10.i, align 4
  %inc.i = add i32 %10, 1
  store i32 %inc.i, ptr %arrayidx10.i, align 4
  br label %for.inc

for.inc:                                          ; preds = %for.body, %_ZNK9parameter7get_astEv.exit, %_ZN6vectorIP3astLb0EjE9push_backEOS1_.exit
  %result.1 = phi i8 [ %result.015, %_ZNK9parameter7get_astEv.exit ], [ 0, %_ZN6vectorIP3astLb0EjE9push_backEOS1_.exit ], [ %result.015, %for.body ]
  %indvars.iv.next = add nuw nsw i64 %indvars.iv, 1
  %exitcond.not = icmp eq i64 %indvars.iv.next, %wide.trip.count
  br i1 %exitcond.not, label %for.end.loopexit, label %for.body, !llvm.loop !4

for.end.loopexit:                                 ; preds = %for.inc
  %11 = and i8 %result.1, 1
  %12 = icmp ne i8 %11, 0
  br label %for.end

for.end:                                          ; preds = %for.end.loopexit, %entry
  %result.0.lcssa = phi i1 [ true, %entry ], [ %12, %for.end.loopexit ]
  ret i1 %result.0.lcssa
}